target datalayout = "e-m:e-p270:32:32-p271:32:32-p272:64:64-i64:64-i128:128-f80:128-n8:16:32:64-S128"
target triple = "x86_64-pc-linux-gnu"

%struct.SDL_AtomicInt = type { i32 }
%struct.SDL_Camera = type { ptr, ptr, i32, %struct.SDL_AtomicInt, ptr, ptr, ptr, ptr, i32, %struct.SDL_CameraSpec, %struct.SDL_CameraSpec, i32, ptr, i32, i64, i64, ptr, ptr, [8 x %struct.SurfaceList], %struct.SurfaceList, %struct.SurfaceList, %struct.SurfaceList, ptr, i32, i8, %struct.SDL_AtomicInt, %struct.SDL_AtomicInt, ptr, i32, i32, ptr }
%struct.SDL_CameraSpec = type { i32, i32, i32, i32, i32, i32 }
%struct.SurfaceList = type { ptr, i64, ptr }

; Function Attrs: nounwind uwtable
define hidden void @SDL_CameraThreadShutdown(ptr noundef %0) #0 {
  %2 = alloca ptr, align 8
  store ptr %0, ptr %2, align 8
  ret void
}

; Function Attrs: nounwind uwtable
define hidden void @SDL_CameraThreadSetup(ptr noundef %0) #0 {
  %2 = alloca ptr, align 8
  store ptr %0, ptr %2, align 8
  %3 = call zeroext i1 @SDL_SetCurrentThreadPriority_REAL(i32 noundef 2)
  ret void
}

; Function Attrs: nounwind uwtable
define internal i32 @CameraThread(ptr noundef %0) #0 {
  %2 = alloca ptr, align 8
  %3 = alloca ptr, align 8
  store ptr %0, ptr %2, align 8
  call void @llvm.lifetime.start.p0(i64 8, ptr %3) #7
  %4 = load ptr, ptr %2, align 8
  store ptr %4, ptr %3, align 8
  br label %5

5:                                                ; preds = %1
  br label %6

6:                                                ; preds = %5
  br label %7

7:                                                ; preds = %6
  %8 = load ptr, ptr %3, align 8
  call void @SDL_CameraThreadSetup(ptr noundef %8)
  br label %9

9:                                                ; preds = %18, %7
  %10 = load ptr, ptr %3, align 8
  %11 = getelementptr inbounds nuw %struct.SDL_Camera, ptr %10, i32 0, i32 4
  %12 = load ptr, ptr %11, align 8
  %13 = load ptr, ptr %3, align 8
  %14 = call zeroext i1 %12(ptr noundef %13)
  br i1 %14, label %17, label %15

15:                                               ; preds = %9
  %16 = load ptr, ptr %3, align 8
  call void @SDL_CameraDisconnected(ptr noundef %16)
  br label %17

17:                                               ; preds = %15, %9
  br label %18

18:                                               ; preds = %17
  %19 = load ptr, ptr %3, align 8
  %20 = call zeroext i1 @SDL_CameraThreadIterate(ptr noundef %19)
  br i1 %20, label %9, label %21, !llvm.loop !19

21:                                               ; preds = %18
  %22 = load ptr, ptr %3, align 8
  call void @SDL_CameraThreadShutdown(ptr noundef %22)
  call void @llvm.lifetime.end.p0(i64 8, ptr %3) #7
  ret i32 0
}