; Function Attrs: nounwind uwtable
define internal noundef i32 @CameraThread(ptr noundef %0) #1 {
  %2 = tail call zeroext i1 @SDL_SetCurrentThreadPriority_REAL(i32 noundef 2) #11
  %3 = getelementptr inbounds nuw i8, ptr %0, i64 24
  br label %4

4:                                                ; preds = %8, %1
  %5 = load ptr, ptr %3, align 8
  %6 = tail call zeroext i1 %5(ptr noundef %0) #11
  br i1 %6, label %8, label %7

7:                                                ; preds = %4
  tail call void @SDL_CameraDisconnected(ptr noundef nonnull %0)
  br label %8

8:                                                ; preds = %4, %7
  %9 = tail call zeroext i1 @SDL_CameraThreadIterate(ptr noundef nonnull %0)
  br i1 %9, label %4, label %10, !llvm.loop !19

10:                                               ; preds = %8
  ret i32 0
}